target datalayout = "e-m:e-p270:32:32-p271:32:32-p272:64:64-i64:64-i128:128-f80:128-n8:16:32:64-S128"
target triple = "x86_64-pc-linux-gnu"

%struct.ForEachState = type { ptr, i32 }
%struct.QualCost = type { double, double }
%struct.List = type { i32, i32, i32, ptr, [0 x %union.ListCell] }
%union.ListCell = type { ptr }
%struct.IndexOptInfo = type { i32, i32, i32, ptr, i32, double, i32, i32, i32, ptr, ptr, ptr, ptr, ptr, ptr, ptr, ptr, ptr, i32, ptr, ptr, ptr, ptr, i8, i8, i8, i8, i8, i8, i8, i8, i8, i8, i8, i8, i8, ptr }
%struct.Path = type { i32, i32, ptr, ptr, ptr, i8, i8, i32, double, i32, double, double, ptr }
%struct.IndexPath = type { %struct.Path, ptr, ptr, ptr, ptr, i32, double, double }
%struct.RestrictInfo = type { i32, ptr, i8, i8, i8, i8, i8, i8, i32, i32, i32, ptr, ptr, ptr, ptr, ptr, ptr, ptr, i32, ptr, %struct.QualCost, double, double, ptr, ptr, ptr, ptr, ptr, ptr, i8, i32, double, double, double, double, i32, i32 }
%struct.Node = type { i32 }
%struct.IndexClause = type { i32, ptr, ptr, i8, i16, ptr }
%struct.BitmapAndPath = type { %struct.Path, ptr, double }
%struct.BitmapOrPath = type { %struct.Path, ptr, double }

@.str.1 = private unnamed_addr constant [11 x i8] c"indxpath.c\00", align 1
@.str.4 = private unnamed_addr constant [27 x i8] c"unrecognized node type: %d\00", align 1
@__func__.find_indexpath_quals = private unnamed_addr constant [21 x i8] c"find_indexpath_quals\00", align 1

; Function Attrs: nounwind uwtable
define internal void @find_indexpath_quals(ptr noundef %0, ptr noundef %1, ptr noundef %2) #0 {
  %4 = alloca ptr, align 8
  %5 = alloca ptr, align 8
  %6 = alloca ptr, align 8
  %7 = alloca ptr, align 8
  %8 = alloca ptr, align 8
  %9 = alloca %struct.ForEachState, align 8
  %10 = alloca ptr, align 8
  %11 = alloca ptr, align 8
  %12 = alloca %struct.ForEachState, align 8
  %13 = alloca ptr, align 8
  %14 = alloca ptr, align 8
  %15 = alloca %struct.ForEachState, align 8
  %16 = alloca ptr, align 8
  store ptr %0, ptr %4, align 8
  store ptr %1, ptr %5, align 8
  store ptr %2, ptr %6, align 8
  %17 = load ptr, ptr %4, align 8
  %18 = getelementptr inbounds nuw %struct.Node, ptr %17, i32 0, i32 0
  %19 = load i32, ptr %18, align 4
  %20 = icmp eq i32 %19, 282
  br i1 %20, label %21, label %65

21:                                               ; preds = %3
  call void @llvm.lifetime.start.p0(i64 8, ptr %7) #7
  %22 = load ptr, ptr %4, align 8
  store ptr %22, ptr %7, align 8
  call void @llvm.lifetime.start.p0(i64 8, ptr %8) #7
  call void @llvm.lifetime.start.p0(i64 16, ptr %9) #7
  %23 = getelementptr inbounds nuw %struct.ForEachState, ptr %9, i32 0, i32 0
  %24 = load ptr, ptr %7, align 8
  %25 = getelementptr inbounds nuw %struct.BitmapAndPath, ptr %24, i32 0, i32 1
  %26 = load ptr, ptr %25, align 8
  store ptr %26, ptr %23, align 8
  %27 = getelementptr inbounds nuw %struct.ForEachState, ptr %9, i32 0, i32 1
  store i32 0, ptr %27, align 8
  %28 = getelementptr i8, ptr %9, i64 12
  call void @llvm.memset.p0.i64(ptr align 4 %28, i8 0, i64 4, i1 false)
  br label %29

29:                                               ; preds = %60, %21
  %30 = getelementptr inbounds nuw %struct.ForEachState, ptr %9, i32 0, i32 0
  %31 = load ptr, ptr %30, align 8
  %32 = icmp ne ptr %31, null
  br i1 %32, label %33, label %50

33:                                               ; preds = %29
  %34 = getelementptr inbounds nuw %struct.ForEachState, ptr %9, i32 0, i32 1
  %35 = load i32, ptr %34, align 8
  %36 = getelementptr inbounds nuw %struct.ForEachState, ptr %9, i32 0, i32 0
  %37 = load ptr, ptr %36, align 8
  %38 = getelementptr inbounds nuw %struct.List, ptr %37, i32 0, i32 1
  %39 = load i32, ptr %38, align 4
  %40 = icmp slt i32 %35, %39
  br i1 %40, label %41, label %50

41:                                               ; preds = %33
  %42 = getelementptr inbounds nuw %struct.ForEachState, ptr %9, i32 0, i32 0
  %43 = load ptr, ptr %42, align 8
  %44 = getelementptr inbounds nuw %struct.List, ptr %43, i32 0, i32 3
  %45 = load ptr, ptr %44, align 8
  %46 = getelementptr inbounds nuw %struct.ForEachState, ptr %9, i32 0, i32 1
  %47 = load i32, ptr %46, align 8
  %48 = sext i32 %47 to i64
  %49 = getelementptr inbounds %union.ListCell, ptr %45, i64 %48
  store ptr %49, ptr %8, align 8
  br label %51

50:                                               ; preds = %33, %29
  store ptr null, ptr %8, align 8
  br label %51

51:                                               ; preds = %50, %41
  %52 = phi i32 [ 1, %41 ], [ 0, %50 ]
  %53 = icmp ne i32 %52, 0
  br i1 %53, label %55, label %54

54:                                               ; preds = %51
  call void @llvm.lifetime.end.p0(i64 16, ptr %9) #7
  br label %64

55:                                               ; preds = %51
  %56 = load ptr, ptr %8, align 8
  %57 = load ptr, ptr %56, align 8
  %58 = load ptr, ptr %5, align 8
  %59 = load ptr, ptr %6, align 8
  call void @find_indexpath_quals(ptr noundef %57, ptr noundef %58, ptr noundef %59)
  br label %60

60:                                               ; preds = %55
  %61 = getelementptr inbounds nuw %struct.ForEachState, ptr %9, i32 0, i32 1
  %62 = load i32, ptr %61, align 8
  %63 = add i32 %62, 1
  store i32 %63, ptr %61, align 8
  br label %29, !llvm.loop !72

64:                                               ; preds = %54
  call void @llvm.lifetime.end.p0(i64 8, ptr %8) #7
  call void @llvm.lifetime.end.p0(i64 8, ptr %7) #7
  br label %194

65:                                               ; preds = %3
  %66 = load ptr, ptr %4, align 8
  %67 = getelementptr inbounds nuw %struct.Node, ptr %66, i32 0, i32 0
  %68 = load i32, ptr %67, align 4
  %69 = icmp eq i32 %68, 283
  br i1 %69, label %70, label %114

70:                                               ; preds = %65
  call void @llvm.lifetime.start.p0(i64 8, ptr %10) #7
  %71 = load ptr, ptr %4, align 8
  store ptr %71, ptr %10, align 8
  call void @llvm.lifetime.start.p0(i64 8, ptr %11) #7
  call void @llvm.lifetime.start.p0(i64 16, ptr %12) #7
  %72 = getelementptr inbounds nuw %struct.ForEachState, ptr %12, i32 0, i32 0
  %73 = load ptr, ptr %10, align 8
  %74 = getelementptr inbounds nuw %struct.BitmapOrPath, ptr %73, i32 0, i32 1
  %75 = load ptr, ptr %74, align 8
  store ptr %75, ptr %72, align 8
  %76 = getelementptr inbounds nuw %struct.ForEachState, ptr %12, i32 0, i32 1
  store i32 0, ptr %76, align 8
  %77 = getelementptr i8, ptr %12, i64 12
  call void @llvm.memset.p0.i64(ptr align 4 %77, i8 0, i64 4, i1 false)
  br label %78

78:                                               ; preds = %109, %70
  %79 = getelementptr inbounds nuw %struct.ForEachState, ptr %12, i32 0, i32 0
  %80 = load ptr, ptr %79, align 8
  %81 = icmp ne ptr %80, null
  br i1 %81, label %82, label %99

82:                                               ; preds = %78
  %83 = getelementptr inbounds nuw %struct.ForEachState, ptr %12, i32 0, i32 1
  %84 = load i32, ptr %83, align 8
  %85 = getelementptr inbounds nuw %struct.ForEachState, ptr %12, i32 0, i32 0
  %86 = load ptr, ptr %85, align 8
  %87 = getelementptr inbounds nuw %struct.List, ptr %86, i32 0, i32 1
  %88 = load i32, ptr %87, align 4
  %89 = icmp slt i32 %84, %88
  br i1 %89, label %90, label %99

90:                                               ; preds = %82
  %91 = getelementptr inbounds nuw %struct.ForEachState, ptr %12, i32 0, i32 0
  %92 = load ptr, ptr %91, align 8
  %93 = getelementptr inbounds nuw %struct.List, ptr %92, i32 0, i32 3
  %94 = load ptr, ptr %93, align 8
  %95 = getelementptr inbounds nuw %struct.ForEachState, ptr %12, i32 0, i32 1
  %96 = load i32, ptr %95, align 8
  %97 = sext i32 %96 to i64
  %98 = getelementptr inbounds %union.ListCell, ptr %94, i64 %97
  store ptr %98, ptr %11, align 8
  br label %100

99:                                               ; preds = %82, %78
  store ptr null, ptr %11, align 8
  br label %100

100:                                              ; preds = %99, %90
  %101 = phi i32 [ 1, %90 ], [ 0, %99 ]
  %102 = icmp ne i32 %101, 0
  br i1 %102, label %104, label %103

103:                                              ; preds = %100
  call void @llvm.lifetime.end.p0(i64 16, ptr %12) #7
  br label %113

104:                                              ; preds = %100
  %105 = load ptr, ptr %11, align 8
  %106 = load ptr, ptr %105, align 8
  %107 = load ptr, ptr %5, align 8
  %108 = load ptr, ptr %6, align 8
  call void @find_indexpath_quals(ptr noundef %106, ptr noundef %107, ptr noundef %108)
  br label %109

109:                                              ; preds = %104
  %110 = getelementptr inbounds nuw %struct.ForEachState, ptr %12, i32 0, i32 1
  %111 = load i32, ptr %110, align 8
  %112 = add i32 %111, 1
  store i32 %112, ptr %110, align 8
  br label %78, !llvm.loop !73

113:                                              ; preds = %103
  call void @llvm.lifetime.end.p0(i64 8, ptr %11) #7
  call void @llvm.lifetime.end.p0(i64 8, ptr %10) #7
  br label %193

114:                                              ; preds = %65
  %115 = load ptr, ptr %4, align 8
  %116 = getelementptr inbounds nuw %struct.Node, ptr %115, i32 0, i32 0
  %117 = load i32, ptr %116, align 4
  %118 = icmp eq i32 %117, 279
  br i1 %118, label %119, label %179

119:                                              ; preds = %114
  call void @llvm.lifetime.start.p0(i64 8, ptr %13) #7
  %120 = load ptr, ptr %4, align 8
  store ptr %120, ptr %13, align 8
  call void @llvm.lifetime.start.p0(i64 8, ptr %14) #7
  call void @llvm.lifetime.start.p0(i64 16, ptr %15) #7
  %121 = getelementptr inbounds nuw %struct.ForEachState, ptr %15, i32 0, i32 0
  %122 = load ptr, ptr %13, align 8
  %123 = getelementptr inbounds nuw %struct.IndexPath, ptr %122, i32 0, i32 2
  %124 = load ptr, ptr %123, align 8
  store ptr %124, ptr %121, align 8
  %125 = getelementptr inbounds nuw %struct.ForEachState, ptr %15, i32 0, i32 1
  store i32 0, ptr %125, align 8
  %126 = getelementptr i8, ptr %15, i64 12
  call void @llvm.memset.p0.i64(ptr align 4 %126, i8 0, i64 4, i1 false)
  br label %127

127:                                              ; preds = %165, %119
  %128 = getelementptr inbounds nuw %struct.ForEachState, ptr %15, i32 0, i32 0
  %129 = load ptr, ptr %128, align 8
  %130 = icmp ne ptr %129, null
  br i1 %130, label %131, label %148

131:                                              ; preds = %127
  %132 = getelementptr inbounds nuw %struct.ForEachState, ptr %15, i32 0, i32 1
  %133 = load i32, ptr %132, align 8
  %134 = getelementptr inbounds nuw %struct.ForEachState, ptr %15, i32 0, i32 0
  %135 = load ptr, ptr %134, align 8
  %136 = getelementptr inbounds nuw %struct.List, ptr %135, i32 0, i32 1
  %137 = load i32, ptr %136, align 4
  %138 = icmp slt i32 %133, %137
  br i1 %138, label %139, label %148

139:                                              ; preds = %131
  %140 = getelementptr inbounds nuw %struct.ForEachState, ptr %15, i32 0, i32 0
  %141 = load ptr, ptr %140, align 8
  %142 = getelementptr inbounds nuw %struct.List, ptr %141, i32 0, i32 3
  %143 = load ptr, ptr %142, align 8
  %144 = getelementptr inbounds nuw %struct.ForEachState, ptr %15, i32 0, i32 1
  %145 = load i32, ptr %144, align 8
  %146 = sext i32 %145 to i64
  %147 = getelementptr inbounds %union.ListCell, ptr %143, i64 %146
  store ptr %147, ptr %14, align 8
  br label %149

148:                                              ; preds = %131, %127
  store ptr null, ptr %14, align 8
  br label %149

149:                                              ; preds = %148, %139
  %150 = phi i32 [ 1, %139 ], [ 0, %148 ]
  %151 = icmp ne i32 %150, 0
  br i1 %151, label %153, label %152

152:                                              ; preds = %149
  call void @llvm.lifetime.end.p0(i64 16, ptr %15) #7
  br label %169

153:                                              ; preds = %149
  call void @llvm.lifetime.start.p0(i64 8, ptr %16) #7
  %154 = load ptr, ptr %14, align 8
  %155 = load ptr, ptr %154, align 8
  store ptr %155, ptr %16, align 8
  %156 = load ptr, ptr %5, align 8
  %157 = load ptr, ptr %156, align 8
  %158 = load ptr, ptr %16, align 8
  %159 = getelementptr inbounds nuw %struct.IndexClause, ptr %158, i32 0, i32 1
  %160 = load ptr, ptr %159, align 8
  %161 = getelementptr inbounds nuw %struct.RestrictInfo, ptr %160, i32 0, i32 1
  %162 = load ptr, ptr %161, align 8
  %163 = call ptr @lappend(ptr noundef %157, ptr noundef %162)
  %164 = load ptr, ptr %5, align 8
  store ptr %163, ptr %164, align 8
  call void @llvm.lifetime.end.p0(i64 8, ptr %16) #7
  br label %165

165:                                              ; preds = %153
  %166 = getelementptr inbounds nuw %struct.ForEachState, ptr %15, i32 0, i32 1
  %167 = load i32, ptr %166, align 8
  %168 = add i32 %167, 1
  store i32 %168, ptr %166, align 8
  br label %127, !llvm.loop !74

169:                                              ; preds = %152
  %170 = load ptr, ptr %6, align 8
  %171 = load ptr, ptr %170, align 8
  %172 = load ptr, ptr %13, align 8
  %173 = getelementptr inbounds nuw %struct.IndexPath, ptr %172, i32 0, i32 1
  %174 = load ptr, ptr %173, align 8
  %175 = getelementptr inbounds nuw %struct.IndexOptInfo, ptr %174, i32 0, i32 20
  %176 = load ptr, ptr %175, align 8
  %177 = call ptr @list_concat(ptr noundef %171, ptr noundef %176)
  %178 = load ptr, ptr %6, align 8
  store ptr %177, ptr %178, align 8
  call void @llvm.lifetime.end.p0(i64 8, ptr %14) #7
  call void @llvm.lifetime.end.p0(i64 8, ptr %13) #7
  br label %192

179:                                              ; preds = %114
  br label %180

180:                                              ; preds = %179
  br i1 true, label %181, label %183

181:                                              ; preds = %180
  %182 = call zeroext i1 @errstart_cold(i32 noundef 21, ptr noundef null) #8
  br i1 %182, label %185, label %190

183:                                              ; preds = %180
  %184 = call zeroext i1 @errstart(i32 noundef 21, ptr noundef null)
  br i1 %184, label %185, label %190

185:                                              ; preds = %183, %181
  %186 = load ptr, ptr %4, align 8
  %187 = getelementptr inbounds nuw %struct.Node, ptr %186, i32 0, i32 0
  %188 = load i32, ptr %187, align 4
  %189 = call i32 (ptr, ...) @errmsg_internal(ptr noundef @.str.4, i32 noundef %188)
  call void @errfinish(ptr noundef @.str.1, i32 noundef 2135, ptr noundef @__func__.find_indexpath_quals)
  br label %190

190:                                              ; preds = %185, %183, %181
  unreachable

191:                                              ; No predecessors!
  br label %192

192:                                              ; preds = %191, %169
  br label %193

193:                                              ; preds = %192, %113
  br label %194

194:                                              ; preds = %193, %64
  ret void
}