; Function Attrs: nounwind uwtable
define internal fastcc void @find_indexpath_quals(ptr noundef readonly captures(none) %0, ptr noundef %1, ptr noundef %2) unnamed_addr #0 {
  %4 = load i32, ptr %0, align 4
  switch i32 %4, label %56 [
    i32 282, label %5
    i32 283, label %18
    i32 279, label %31
  ]

5:                                                ; preds = %3
  %6 = getelementptr inbounds nuw i8, ptr %0, i64 80
  %7 = load ptr, ptr %6, align 8
  %8 = getelementptr inbounds nuw i8, ptr %7, i64 4
  %.not50 = icmp eq ptr %7, null
  br i1 %.not50, label %.thread, label %.lr.ph75

.lr.ph75:                                         ; preds = %5
  %9 = getelementptr inbounds nuw i8, ptr %7, i64 16
  %10 = load i32, ptr %8, align 4
  %11 = icmp sgt i32 %10, 0
  br i1 %11, label %.lr.ph78, label %.thread

.lr.ph78:                                         ; preds = %.lr.ph75, %.lr.ph78
  %indvars.iv84 = phi i64 [ %indvars.iv.next85, %.lr.ph78 ], [ 0, %.lr.ph75 ]
  %12 = load ptr, ptr %9, align 8
  %13 = getelementptr inbounds nuw %union.ListCell, ptr %12, i64 %indvars.iv84
  %14 = load ptr, ptr %13, align 8
  tail call fastcc void @find_indexpath_quals(ptr noundef %14, ptr noundef %1, ptr noundef %2)
  %indvars.iv.next85 = add nuw nsw i64 %indvars.iv84, 1
  %15 = load i32, ptr %8, align 4
  %16 = sext i32 %15 to i64
  %17 = icmp slt i64 %indvars.iv.next85, %16
  br i1 %17, label %.lr.ph78, label %.thread

18:                                               ; preds = %3
  %19 = getelementptr inbounds nuw i8, ptr %0, i64 80
  %20 = load ptr, ptr %19, align 8
  %21 = getelementptr inbounds nuw i8, ptr %20, i64 4
  %.not48 = icmp eq ptr %20, null
  br i1 %.not48, label %.thread, label %.lr.ph69

.lr.ph69:                                         ; preds = %18
  %22 = getelementptr inbounds nuw i8, ptr %20, i64 16
  %23 = load i32, ptr %21, align 4
  %24 = icmp sgt i32 %23, 0
  br i1 %24, label %.lr.ph72, label %.thread

.lr.ph72:                                         ; preds = %.lr.ph69, %.lr.ph72
  %indvars.iv81 = phi i64 [ %indvars.iv.next82, %.lr.ph72 ], [ 0, %.lr.ph69 ]
  %25 = load ptr, ptr %22, align 8
  %26 = getelementptr inbounds nuw %union.ListCell, ptr %25, i64 %indvars.iv81
  %27 = load ptr, ptr %26, align 8
  tail call fastcc void @find_indexpath_quals(ptr noundef %27, ptr noundef %1, ptr noundef %2)
  %indvars.iv.next82 = add nuw nsw i64 %indvars.iv81, 1
  %28 = load i32, ptr %21, align 4
  %29 = sext i32 %28 to i64
  %30 = icmp slt i64 %indvars.iv.next82, %29
  br i1 %30, label %.lr.ph72, label %.thread

31:                                               ; preds = %3
  %32 = getelementptr inbounds nuw i8, ptr %0, i64 88
  %33 = load ptr, ptr %32, align 8
  %34 = getelementptr inbounds nuw i8, ptr %33, i64 4
  %.not = icmp eq ptr %33, null
  br i1 %.not, label %._crit_edge, label %.lr.ph

.lr.ph:                                           ; preds = %31
  %35 = getelementptr inbounds nuw i8, ptr %33, i64 16
  %36 = load i32, ptr %34, align 4
  %37 = icmp sgt i32 %36, 0
  br i1 %37, label %.lr.ph66.preheader, label %._crit_edge

.lr.ph66.preheader:                               ; preds = %.lr.ph
  %.pre = load ptr, ptr %1, align 8
  br label %.lr.ph66

._crit_edge:                                      ; preds = %.lr.ph66, %.lr.ph, %31
  %38 = load ptr, ptr %2, align 8
  %39 = getelementptr inbounds nuw i8, ptr %0, i64 80
  %40 = load ptr, ptr %39, align 8
  %41 = getelementptr inbounds nuw i8, ptr %40, i64 144
  %42 = load ptr, ptr %41, align 8
  %43 = tail call ptr @list_concat(ptr noundef %38, ptr noundef %42) #8
  store ptr %43, ptr %2, align 8
  br label %.thread

.lr.ph66:                                         ; preds = %.lr.ph66.preheader, %.lr.ph66
  %44 = phi ptr [ %.pre, %.lr.ph66.preheader ], [ %52, %.lr.ph66 ]
  %indvars.iv = phi i64 [ 0, %.lr.ph66.preheader ], [ %indvars.iv.next, %.lr.ph66 ]
  %45 = load ptr, ptr %35, align 8
  %46 = getelementptr inbounds nuw %union.ListCell, ptr %45, i64 %indvars.iv
  %47 = load ptr, ptr %46, align 8
  %48 = getelementptr inbounds nuw i8, ptr %47, i64 8
  %49 = load ptr, ptr %48, align 8
  %50 = getelementptr inbounds nuw i8, ptr %49, i64 8
  %51 = load ptr, ptr %50, align 8
  %52 = tail call ptr @lappend(ptr noundef %44, ptr noundef %51) #8
  store ptr %52, ptr %1, align 8
  %indvars.iv.next = add nuw nsw i64 %indvars.iv, 1
  %53 = load i32, ptr %34, align 4
  %54 = sext i32 %53 to i64
  %55 = icmp slt i64 %indvars.iv.next, %54
  br i1 %55, label %.lr.ph66, label %._crit_edge

56:                                               ; preds = %3
  %57 = tail call zeroext i1 @errstart_cold(i32 noundef 21, ptr noundef null) #9
  tail call void @llvm.assume(i1 %57)
  %58 = load i32, ptr %0, align 4
  %59 = tail call i32 (ptr, ...) @errmsg_internal(ptr noundef nonnull @.str.4, i32 noundef %58) #8
  tail call void @errfinish(ptr noundef nonnull @.str.1, i32 noundef 2135, ptr noundef nonnull @__func__.find_indexpath_quals) #8
  unreachable

.thread:                                          ; preds = %.lr.ph72, %.lr.ph78, %18, %.lr.ph69, %5, %.lr.ph75, %._crit_edge
  ret void
}